target datalayout = "e-m:e-p270:32:32-p271:32:32-p272:64:64-i64:64-i128:128-f80:128-n8:16:32:64-S128"
target triple = "x86_64-unknown-linux-gnu"

%"class.std::__cxx11::basic_string" = type { %"struct.std::__cxx11::basic_string<char>::_Alloc_hider", i64, %union.anon }
%"struct.std::__cxx11::basic_string<char>::_Alloc_hider" = type { ptr }
%union.anon = type { i64, [8 x i8] }
%"class.base::Histogram" = type <{ %"class.base::HistogramBase.base", [4 x i8], ptr, i32, i32, %"class.std::unique_ptr.24", %"class.std::unique_ptr.32", i8, [7 x i8] }>
%"class.base::HistogramBase.base" = type <{ ptr, %"class.std::__cxx11::basic_string", i32 }>
%"class.std::unique_ptr.24" = type { %"struct.std::__uniq_ptr_data.25" }
%"struct.std::__uniq_ptr_data.25" = type { %"class.std::__uniq_ptr_impl.26" }
%"class.std::__uniq_ptr_impl.26" = type { %"class.std::tuple.27" }
%"class.std::tuple.27" = type { %"struct.std::_Tuple_impl.28" }
%"struct.std::_Tuple_impl.28" = type { %"struct.std::_Head_base.31" }
%"struct.std::_Head_base.31" = type { ptr }
%"class.std::unique_ptr.32" = type { %"struct.std::__uniq_ptr_data.33" }
%"struct.std::__uniq_ptr_data.33" = type { %"class.std::__uniq_ptr_impl.34" }
%"class.std::__uniq_ptr_impl.34" = type { %"class.std::tuple.35" }
%"class.std::tuple.35" = type { %"struct.std::_Tuple_impl.36" }
%"struct.std::_Tuple_impl.36" = type { %"struct.std::_Head_base.39" }
%"struct.std::_Head_base.39" = type { ptr }
%"class.base::HistogramSamples" = type { ptr, %"struct.base::HistogramSamples::Metadata", ptr }
%"struct.base::HistogramSamples::Metadata" = type <{ i64, i64, i32, [4 x i8] }>

; Function Attrs: mustprogress nounwind uwtable
define linkonce_odr dso_local noundef nonnull align 8 dereferenceable(8) ptr @_ZNSt10_Head_baseILm0EPN4base12SampleVectorELb0EE7_M_headERKS3_(ptr noundef nonnull align 8 dereferenceable(8) %__b) #2 comdat align 2 {
entry:
  %__b.addr = alloca ptr, align 8
  store ptr %__b, ptr %__b.addr, align 8
  %0 = load ptr, ptr %__b.addr, align 8
  %_M_head_impl = getelementptr inbounds %"struct.std::_Head_base.31", ptr %0, i32 0, i32 0
  ret ptr %_M_head_impl
}

; Function Attrs: mustprogress nounwind uwtable
define linkonce_odr dso_local noundef nonnull align 8 dereferenceable(8) ptr @_ZNSt11_Tuple_implILm0EJPN4base12SampleVectorESt14default_deleteIS1_EEE7_M_headERKS5_(ptr noundef nonnull align 8 dereferenceable(8) %__t) #2 comdat align 2 {
entry:
  %__t.addr = alloca ptr, align 8
  store ptr %__t, ptr %__t.addr, align 8
  %0 = load ptr, ptr %__t.addr, align 8
  %call = call noundef nonnull align 8 dereferenceable(8) ptr @_ZNSt10_Head_baseILm0EPN4base12SampleVectorELb0EE7_M_headERKS3_(ptr noundef nonnull align 8 dereferenceable(8) %0) #12
  ret ptr %call
}

; Function Attrs: mustprogress nounwind uwtable
define linkonce_odr dso_local noundef nonnull align 8 dereferenceable(8) ptr @_ZSt12__get_helperILm0EPN4base12SampleVectorEJSt14default_deleteIS1_EEERKT0_RKSt11_Tuple_implIXT_EJS5_DpT1_EE(ptr noundef nonnull align 8 dereferenceable(8) %__t) #2 comdat {
entry:
  %__t.addr = alloca ptr, align 8
  store ptr %__t, ptr %__t.addr, align 8
  %0 = load ptr, ptr %__t.addr, align 8
  %call = call noundef nonnull align 8 dereferenceable(8) ptr @_ZNSt11_Tuple_implILm0EJPN4base12SampleVectorESt14default_deleteIS1_EEE7_M_headERKS5_(ptr noundef nonnull align 8 dereferenceable(8) %0) #12
  ret ptr %call
}

; Function Attrs: mustprogress nounwind uwtable
define linkonce_odr dso_local noundef nonnull align 8 dereferenceable(8) ptr @_ZSt3getILm0EJPN4base12SampleVectorESt14default_deleteIS1_EEERKNSt13tuple_elementIXT_ESt5tupleIJDpT0_EEE4typeERKS9_(ptr noundef nonnull align 8 dereferenceable(8) %__t) #2 comdat {
entry:
  %__t.addr = alloca ptr, align 8
  store ptr %__t, ptr %__t.addr, align 8
  %0 = load ptr, ptr %__t.addr, align 8
  %call = call noundef nonnull align 8 dereferenceable(8) ptr @_ZSt12__get_helperILm0EPN4base12SampleVectorEJSt14default_deleteIS1_EEERKT0_RKSt11_Tuple_implIXT_EJS5_DpT1_EE(ptr noundef nonnull align 8 dereferenceable(8) %0) #12
  ret ptr %call
}

; Function Attrs: mustprogress nounwind uwtable
define linkonce_odr dso_local noundef ptr @_ZNKSt15__uniq_ptr_implIN4base12SampleVectorESt14default_deleteIS1_EE6_M_ptrEv(ptr noundef nonnull align 8 dereferenceable(8) %this) #2 comdat align 2 {
entry:
  %this.addr = alloca ptr, align 8
  store ptr %this, ptr %this.addr, align 8
  %this1 = load ptr, ptr %this.addr, align 8
  %_M_t = getelementptr inbounds %"class.std::__uniq_ptr_impl.26", ptr %this1, i32 0, i32 0
  %call = call noundef nonnull align 8 dereferenceable(8) ptr @_ZSt3getILm0EJPN4base12SampleVectorESt14default_deleteIS1_EEERKNSt13tuple_elementIXT_ESt5tupleIJDpT0_EEE4typeERKS9_(ptr noundef nonnull align 8 dereferenceable(8) %_M_t) #12
  %0 = load ptr, ptr %call, align 8
  ret ptr %0
}

; Function Attrs: mustprogress nounwind uwtable
define linkonce_odr dso_local noundef ptr @_ZNKSt10unique_ptrIN4base12SampleVectorESt14default_deleteIS1_EE3getEv(ptr noundef nonnull align 8 dereferenceable(8) %this) #2 comdat align 2 {
entry:
  %this.addr = alloca ptr, align 8
  store ptr %this, ptr %this.addr, align 8
  %this1 = load ptr, ptr %this.addr, align 8
  %_M_t = getelementptr inbounds %"class.std::unique_ptr.24", ptr %this1, i32 0, i32 0
  %call = call noundef ptr @_ZNKSt15__uniq_ptr_implIN4base12SampleVectorESt14default_deleteIS1_EE6_M_ptrEv(ptr noundef nonnull align 8 dereferenceable(8) %_M_t) #12
  ret ptr %call
}

; Function Attrs: mustprogress nounwind uwtable
define linkonce_odr dso_local noundef i64 @_ZNK4base16HistogramSamples2idEv(ptr noundef nonnull align 8 dereferenceable(40) %this) #2 comdat align 2 {
entry:
  %this.addr = alloca ptr, align 8
  store ptr %this, ptr %this.addr, align 8
  %this1 = load ptr, ptr %this.addr, align 8
  %meta_ = getelementptr inbounds %"class.base::HistogramSamples", ptr %this1, i32 0, i32 2
  %0 = load ptr, ptr %meta_, align 8
  %id = getelementptr inbounds %"struct.base::HistogramSamples::Metadata", ptr %0, i32 0, i32 0
  %1 = load i64, ptr %id, align 8
  ret i64 %1
}

; Function Attrs: mustprogress nounwind uwtable
define linkonce_odr dso_local noundef ptr @_ZNKSt10unique_ptrIN4base12SampleVectorESt14default_deleteIS1_EEptEv(ptr noundef nonnull align 8 dereferenceable(8) %this) #2 comdat align 2 {
entry:
  %this.addr = alloca ptr, align 8
  store ptr %this, ptr %this.addr, align 8
  %this1 = load ptr, ptr %this.addr, align 8
  %call = call noundef ptr @_ZNKSt10unique_ptrIN4base12SampleVectorESt14default_deleteIS1_EE3getEv(ptr noundef nonnull align 8 dereferenceable(8) %this1) #12
  ret ptr %call
}

; Function Attrs: mustprogress uwtable
define dso_local noundef i64 @_ZNK4base9Histogram9name_hashEv(ptr noundef nonnull align 8 dereferenceable(81) %this) unnamed_addr #0 align 2 {
entry:
  %this.addr = alloca ptr, align 8
  store ptr %this, ptr %this.addr, align 8
  %this1 = load ptr, ptr %this.addr, align 8
  %samples_ = getelementptr inbounds %"class.base::Histogram", ptr %this1, i32 0, i32 5
  %call = call noundef ptr @_ZNKSt10unique_ptrIN4base12SampleVectorESt14default_deleteIS1_EEptEv(ptr noundef nonnull align 8 dereferenceable(8) %samples_) #12
  %call2 = call noundef i64 @_ZNK4base16HistogramSamples2idEv(ptr noundef nonnull align 8 dereferenceable(40) %call)
  ret i64 %call2
}