; Function Attrs: mustprogress nofree norecurse nosync nounwind willreturn memory(read, inaccessiblemem: none) uwtable
define dso_local noundef i64 @_ZNK4base9Histogram9name_hashEv(ptr nocapture noundef nonnull readonly align 8 dereferenceable(81) %this) unnamed_addr #9 align 2 {
entry:
  %samples_ = getelementptr inbounds i8, ptr %this, i64 64
  %0 = load ptr, ptr %samples_, align 8
  %meta_.i = getelementptr inbounds i8, ptr %0, i64 32
  %1 = load ptr, ptr %meta_.i, align 8
  %2 = load i64, ptr %1, align 8
  ret i64 %2
}